Certificate:
    Data:
        Version: 3 (0x2)
        Serial Number: 0 (0x0)
    Signature Algorithm: ecdsa-with-SHA1
        Issuer: CN=estExampleCA
        Validity
            Not Before: Apr 14 20:50:16 2019 GMT
            Not After : Jun 13 20:50:16 2038 GMT
        Subject: CN=127.0.0.1:8085
        Subject Public Key Info:
            Public Key Algorithm: id-ecPublicKey
                Public-Key: (256 bit)
                pub: 
                    04:c3:92:ba:cf:fb:8b:bd:ee:bf:8f:6b:45:34:ae:
                    cf:19:07:48:39:e9:b4:5c:e1:0d:51:e5:c0:be:b4:
                    67:54:22:ce:e3:35:d4:64:47:5f:c6:52:4a:24:ca:
                    ab:4e:82:da:9f:33:d4:57:60:bb:65:c4:4e:83:b3:
                    15:19:bb:90:84
                ASN1 OID: prime256v1
                NIST CURVE: P-256
        X509v3 extensions:
            X509v3 Basic Constraints: 
                CA:FALSE
            X509v3 Subject Key Identifier: 
                52:DD:D9:3F:FD:87:D9:50:06:45:51:63:9E:49:A1:79:46:FD:04:BE
            X509v3 Authority Key Identifier: 
                keyid:66:E5:56:CA:93:2B:02:0B:57:A4:D4:E2:ED:5F:CA:A4:EE:7D:83:F9

            X509v3 Subject Alternative Name: 
                DNS:localhost, DNS:ip6-localhost, IP Address:127.0.0.1, IP Address:0:0:0:0:0:0:0:1
    Signature Algorithm: ecdsa-with-SHA1
         30:46:02:21:00:c1:b6:ee:c0:3f:52:b9:33:26:fd:30:91:da:
         ff:b9:f2:0f:a5:01:50:ae:96:71:2b:5b:16:8a:10:46:24:00:
         be:02:21:00:d7:75:78:83:99:3b:a4:7c:3d:58:95:ed:a7:e6:
         ed:bb:ea:dd:df:f1:4d:b5:51:18:06:3e:c3:d6:7b:c1:b1:b6
-----BEGIN CERTIFICATE-----
MIIBqjCCAVCgAwIBAgIBADAJBgcqhkjOPQQBMBcxFTATBgNVBAMTDGVzdEV4YW1w
bGVDQTAeFw0xOTA0MTQyMDUwMTZaFw0zODA2MTMyMDUwMTZaMBkxFzAVBgNVBAMM
DjEyNy4wLjAuMTo4MDg1MFkwEwYHKoZIzj0CAQYIKoZIzj0DAQcDQgAEw5K6z/uL
ve6/j2tFNK7PGQdIOem0XOENUeXAvrRnVCLO4zXUZEdfxlJKJMqrToLanzPUV2C7
ZcROg7MVGbuQhKOBizCBiDAJBgNVHRMEAjAAMB0GA1UdDgQWBBRS3dk//YfZUAZF
UWOeSaF5Rv0EvjAfBgNVHSMEGDAWgBRm5VbKkysCC1ek1OLtX8qk7n2D+TA7BgNV
HREENDAygglsb2NhbGhvc3SCDWlwNi1sb2NhbGhvc3SHBH8AAAGHEAAAAAAAAAAA
AAAAAAAAAAEwCQYHKoZIzj0EAQNJADBGAiEAwbbuwD9SuTMm/TCR2v+58g+lAVCu
lnErWxaKEEYkAL4CIQDXdXiDmTukfD1Yle2n5u276t3f8U21URgGPsPWe8Gxtg==
-----END CERTIFICATE-----
